; Function Attrs: mustprogress uwtable
define internal noundef ptr @"_ZZN4pkpy12add_module_cEPNS_2VMEEN4$_258__invokeES1_NS_8ArgsViewE"(ptr noundef %0, ptr nocapture readonly %1, ptr nocapture readnone %2) #3 align 2 {
  %4 = load ptr, ptr %1, align 8
  %5 = getelementptr inbounds i8, ptr %4, i64 24
  %6 = getelementptr inbounds i8, ptr %1, i64 8
  %7 = load ptr, ptr %6, align 8
  %8 = tail call noundef signext i16 @_ZN4pkpy18_py_cast__internalIsLb1EEET_PNS_2VMEPNS_8PyObjectE(ptr noundef %0, ptr noundef %7)
  %9 = load ptr, ptr %5, align 8
  store i16 %8, ptr %9, align 2
  %10 = getelementptr inbounds i8, ptr %0, i64 264520
  %11 = load ptr, ptr %10, align 8
  ret ptr %11
}